; Function Attrs: mustprogress nounwind uwtable
define hidden void @_ZN8CallInfo11set_virtualEP5KlassRK12methodHandleS4_iP10JavaThread(ptr noundef nonnull align 8 dereferenceable(64) %0, ptr noundef %1, ptr noundef nonnull align 8 dereferenceable(16) %2, ptr noundef nonnull align 8 dereferenceable(16) %3, i32 noundef %4, ptr noundef %5) local_unnamed_addr #0 align 2 {
  %7 = icmp sgt i32 %4, -1
  br i1 %7, label %8, label %13

8:                                                ; preds = %6
  %9 = load ptr, ptr %2, align 8
  %10 = tail call noundef zeroext i1 @_ZNK6Method23can_be_statically_boundEv(ptr noundef nonnull align 8 dereferenceable(88) %9) #10
  %11 = xor i1 %10, true
  %12 = zext i1 %11 to i32
  br label %13

13:                                               ; preds = %8, %6
  %14 = phi i32 [ 0, %6 ], [ %12, %8 ]
  store ptr %1, ptr %0, align 8
  %15 = getelementptr inbounds i8, ptr %0, i64 8
  %16 = tail call noundef nonnull align 8 dereferenceable(16) ptr @_ZN12methodHandleaSERKS_(ptr noundef nonnull align 8 dereferenceable(16) %15, ptr noundef nonnull align 8 dereferenceable(16) %2) #10
  %17 = getelementptr inbounds i8, ptr %0, i64 24
  %18 = tail call noundef nonnull align 8 dereferenceable(16) ptr @_ZN12methodHandleaSERKS_(ptr noundef nonnull align 8 dereferenceable(16) %17, ptr noundef nonnull align 8 dereferenceable(16) %3) #10
  %19 = getelementptr inbounds i8, ptr %0, i64 40
  store i32 %14, ptr %19, align 8
  %20 = getelementptr inbounds i8, ptr %0, i64 44
  store i32 %4, ptr %20, align 4
  %21 = getelementptr inbounds i8, ptr %0, i64 48
  store i64 0, ptr %21, align 8
  %22 = load ptr, ptr %3, align 8
  %.not.i = icmp eq ptr %22, null
  br i1 %.not.i, label %_ZN8CallInfo10set_commonEP5KlassRK12methodHandleS4_NS_8CallKindEiP10JavaThread.exit, label %23

23:                                               ; preds = %13
  tail call void @_ZN17CompilationPolicy19compile_if_requiredERK12methodHandleP10JavaThread(ptr noundef nonnull align 8 dereferenceable(16) %3, ptr noundef %5) #10
  br label %_ZN8CallInfo10set_commonEP5KlassRK12methodHandleS4_NS_8CallKindEiP10JavaThread.exit

_ZN8CallInfo10set_commonEP5KlassRK12methodHandleS4_NS_8CallKindEiP10JavaThread.exit: ; preds = %13, %23
  ret void
}